target datalayout = "e-m:e-p270:32:32-p271:32:32-p272:64:64-i64:64-i128:128-f80:128-n8:16:32:64-S128"
target triple = "x86_64-pc-linux-gnu"

%struct.lexbor_str_t = type { ptr, i64 }

@lexbor_str_res_ansi_replacement_character = internal constant [4 x i8] c"\EF\BF\BD\00", align 1

; Function Attrs: nounwind uwtable
define internal i64 @lexbor_mraw_data_size(ptr noundef %0) #0 {
  %2 = alloca ptr, align 8
  store ptr %0, ptr %2, align 8
  %3 = load ptr, ptr %2, align 8
  %4 = getelementptr inbounds i8, ptr %3, i64 -8
  %5 = load i64, ptr %4, align 8
  ret i64 %5
}

; Function Attrs: nounwind uwtable
define hidden ptr @lexbor_str_append(ptr noundef %0, ptr noundef %1, ptr noundef %2, i64 noundef %3) #0 {
  %5 = alloca ptr, align 8
  %6 = alloca ptr, align 8
  %7 = alloca ptr, align 8
  %8 = alloca ptr, align 8
  %9 = alloca i64, align 8
  %10 = alloca ptr, align 8
  %11 = alloca ptr, align 8
  store ptr %0, ptr %6, align 8
  store ptr %1, ptr %7, align 8
  store ptr %2, ptr %8, align 8
  store i64 %3, ptr %9, align 8
  br label %12

12:                                               ; preds = %4
  %13 = load ptr, ptr %6, align 8
  %14 = getelementptr inbounds %struct.lexbor_str_t, ptr %13, i32 0, i32 1
  %15 = load i64, ptr %14, align 8
  %16 = load i64, ptr %9, align 8
  %17 = add i64 %16, 1
  %18 = sub i64 -1, %17
  %19 = icmp ugt i64 %15, %18
  br i1 %19, label %20, label %21

20:                                               ; preds = %12
  store ptr null, ptr %5, align 8
  br label %76

21:                                               ; preds = %12
  %22 = load ptr, ptr %6, align 8
  %23 = getelementptr inbounds %struct.lexbor_str_t, ptr %22, i32 0, i32 1
  %24 = load i64, ptr %23, align 8
  %25 = load i64, ptr %9, align 8
  %26 = add i64 %25, 1
  %27 = add i64 %24, %26
  %28 = load ptr, ptr %6, align 8
  %29 = call i64 @lexbor_str_size(ptr noundef %28)
  %30 = icmp ugt i64 %27, %29
  br i1 %30, label %31, label %50

31:                                               ; preds = %21
  %32 = load ptr, ptr %7, align 8
  %33 = load ptr, ptr %6, align 8
  %34 = getelementptr inbounds %struct.lexbor_str_t, ptr %33, i32 0, i32 0
  %35 = load ptr, ptr %34, align 8
  %36 = load ptr, ptr %6, align 8
  %37 = getelementptr inbounds %struct.lexbor_str_t, ptr %36, i32 0, i32 1
  %38 = load i64, ptr %37, align 8
  %39 = load i64, ptr %9, align 8
  %40 = add i64 %39, 1
  %41 = add i64 %38, %40
  %42 = call ptr @lexbor_mraw_realloc(ptr noundef %32, ptr noundef %35, i64 noundef %41)
  store ptr %42, ptr %11, align 8
  %43 = load ptr, ptr %11, align 8
  %44 = icmp eq ptr %43, null
  br i1 %44, label %45, label %46

45:                                               ; preds = %31
  store ptr null, ptr %5, align 8
  br label %76

46:                                               ; preds = %31
  %47 = load ptr, ptr %11, align 8
  %48 = load ptr, ptr %6, align 8
  %49 = getelementptr inbounds %struct.lexbor_str_t, ptr %48, i32 0, i32 0
  store ptr %47, ptr %49, align 8
  br label %50

50:                                               ; preds = %46, %21
  br label %51

51:                                               ; preds = %50
  %52 = load ptr, ptr %6, align 8
  %53 = getelementptr inbounds %struct.lexbor_str_t, ptr %52, i32 0, i32 0
  %54 = load ptr, ptr %53, align 8
  %55 = load ptr, ptr %6, align 8
  %56 = getelementptr inbounds %struct.lexbor_str_t, ptr %55, i32 0, i32 1
  %57 = load i64, ptr %56, align 8
  %58 = getelementptr inbounds i8, ptr %54, i64 %57
  store ptr %58, ptr %10, align 8
  %59 = load ptr, ptr %10, align 8
  %60 = load ptr, ptr %8, align 8
  %61 = load i64, ptr %9, align 8
  %62 = mul i64 1, %61
  call void @llvm.memcpy.p0.p0.i64(ptr align 1 %59, ptr align 1 %60, i64 %62, i1 false)
  %63 = load i64, ptr %9, align 8
  %64 = load ptr, ptr %6, align 8
  %65 = getelementptr inbounds %struct.lexbor_str_t, ptr %64, i32 0, i32 1
  %66 = load i64, ptr %65, align 8
  %67 = add i64 %66, %63
  store i64 %67, ptr %65, align 8
  %68 = load ptr, ptr %6, align 8
  %69 = getelementptr inbounds %struct.lexbor_str_t, ptr %68, i32 0, i32 0
  %70 = load ptr, ptr %69, align 8
  %71 = load ptr, ptr %6, align 8
  %72 = getelementptr inbounds %struct.lexbor_str_t, ptr %71, i32 0, i32 1
  %73 = load i64, ptr %72, align 8
  %74 = getelementptr inbounds i8, ptr %70, i64 %73
  store i8 0, ptr %74, align 1
  %75 = load ptr, ptr %10, align 8
  store ptr %75, ptr %5, align 8
  br label %76

76:                                               ; preds = %51, %45, %20
  %77 = load ptr, ptr %5, align 8
  ret ptr %77
}

; Function Attrs: nounwind uwtable
define internal i64 @lexbor_str_size(ptr noundef %0) #0 {
  %2 = alloca ptr, align 8
  store ptr %0, ptr %2, align 8
  %3 = load ptr, ptr %2, align 8
  %4 = getelementptr inbounds %struct.lexbor_str_t, ptr %3, i32 0, i32 0
  %5 = load ptr, ptr %4, align 8
  %6 = call i64 @lexbor_mraw_data_size(ptr noundef %5)
  ret i64 %6
}

; Function Attrs: nounwind uwtable
define hidden ptr @lexbor_str_append_with_rep_null_chars(ptr noundef %0, ptr noundef %1, ptr noundef %2, i64 noundef %3) #0 {
  %5 = alloca ptr, align 8
  %6 = alloca ptr, align 8
  %7 = alloca ptr, align 8
  %8 = alloca ptr, align 8
  %9 = alloca i64, align 8
  %10 = alloca ptr, align 8
  %11 = alloca ptr, align 8
  %12 = alloca ptr, align 8
  %13 = alloca i64, align 8
  %14 = alloca ptr, align 8
  store ptr %0, ptr %6, align 8
  store ptr %1, ptr %7, align 8
  store ptr %2, ptr %8, align 8
  store i64 %3, ptr %9, align 8
  %15 = load ptr, ptr %6, align 8
  %16 = getelementptr inbounds %struct.lexbor_str_t, ptr %15, i32 0, i32 1
  %17 = load i64, ptr %16, align 8
  store i64 %17, ptr %13, align 8
  br label %18

18:                                               ; preds = %4
  %19 = load ptr, ptr %6, align 8
  %20 = getelementptr inbounds %struct.lexbor_str_t, ptr %19, i32 0, i32 1
  %21 = load i64, ptr %20, align 8
  %22 = load i64, ptr %9, align 8
  %23 = add i64 %22, 1
  %24 = sub i64 -1, %23
  %25 = icmp ugt i64 %21, %24
  br i1 %25, label %26, label %27

26:                                               ; preds = %18
  store ptr null, ptr %5, align 8
  br label %124

27:                                               ; preds = %18
  %28 = load ptr, ptr %6, align 8
  %29 = getelementptr inbounds %struct.lexbor_str_t, ptr %28, i32 0, i32 1
  %30 = load i64, ptr %29, align 8
  %31 = load i64, ptr %9, align 8
  %32 = add i64 %31, 1
  %33 = add i64 %30, %32
  %34 = load ptr, ptr %6, align 8
  %35 = call i64 @lexbor_str_size(ptr noundef %34)
  %36 = icmp ugt i64 %33, %35
  br i1 %36, label %37, label %56

37:                                               ; preds = %27
  %38 = load ptr, ptr %7, align 8
  %39 = load ptr, ptr %6, align 8
  %40 = getelementptr inbounds %struct.lexbor_str_t, ptr %39, i32 0, i32 0
  %41 = load ptr, ptr %40, align 8
  %42 = load ptr, ptr %6, align 8
  %43 = getelementptr inbounds %struct.lexbor_str_t, ptr %42, i32 0, i32 1
  %44 = load i64, ptr %43, align 8
  %45 = load i64, ptr %9, align 8
  %46 = add i64 %45, 1
  %47 = add i64 %44, %46
  %48 = call ptr @lexbor_mraw_realloc(ptr noundef %38, ptr noundef %41, i64 noundef %47)
  store ptr %48, ptr %14, align 8
  %49 = load ptr, ptr %14, align 8
  %50 = icmp eq ptr %49, null
  br i1 %50, label %51, label %52

51:                                               ; preds = %37
  store ptr null, ptr %5, align 8
  br label %124

52:                                               ; preds = %37
  %53 = load ptr, ptr %14, align 8
  %54 = load ptr, ptr %6, align 8
  %55 = getelementptr inbounds %struct.lexbor_str_t, ptr %54, i32 0, i32 0
  store ptr %53, ptr %55, align 8
  br label %56

56:                                               ; preds = %52, %27
  br label %57

57:                                               ; preds = %56
  %58 = load ptr, ptr %8, align 8
  %59 = load i64, ptr %9, align 8
  %60 = getelementptr inbounds i8, ptr %58, i64 %59
  store ptr %60, ptr %12, align 8
  br label %61

61:                                               ; preds = %97, %57
  %62 = load ptr, ptr %8, align 8
  %63 = load ptr, ptr %12, align 8
  %64 = icmp ne ptr %62, %63
  br i1 %64, label %65, label %100

65:                                               ; preds = %61
  %66 = load ptr, ptr %8, align 8
  %67 = load ptr, ptr %12, align 8
  %68 = load ptr, ptr %8, align 8
  %69 = ptrtoint ptr %67 to i64
  %70 = ptrtoint ptr %68 to i64
  %71 = sub i64 %69, %70
  %72 = mul i64 1, %71
  %73 = call ptr @memchr(ptr noundef %66, i32 noundef 0, i64 noundef %72) #5
  store ptr %73, ptr %10, align 8
  %74 = load ptr, ptr %10, align 8
  %75 = icmp eq ptr %74, null
  br i1 %75, label %76, label %77

76:                                               ; preds = %65
  br label %100

77:                                               ; preds = %65
  %78 = load ptr, ptr %6, align 8
  %79 = load ptr, ptr %7, align 8
  %80 = load ptr, ptr %8, align 8
  %81 = load ptr, ptr %10, align 8
  %82 = load ptr, ptr %8, align 8
  %83 = ptrtoint ptr %81 to i64
  %84 = ptrtoint ptr %82 to i64
  %85 = sub i64 %83, %84
  %86 = call ptr @lexbor_str_append(ptr noundef %78, ptr noundef %79, ptr noundef %80, i64 noundef %85)
  store ptr %86, ptr %11, align 8
  %87 = load ptr, ptr %11, align 8
  %88 = icmp eq ptr %87, null
  br i1 %88, label %89, label %90

89:                                               ; preds = %77
  store ptr null, ptr %5, align 8
  br label %124

90:                                               ; preds = %77
  %91 = load ptr, ptr %6, align 8
  %92 = load ptr, ptr %7, align 8
  %93 = call ptr @lexbor_str_append(ptr noundef %91, ptr noundef %92, ptr noundef @lexbor_str_res_ansi_replacement_character, i64 noundef 3)
  store ptr %93, ptr %11, align 8
  %94 = load ptr, ptr %11, align 8
  %95 = icmp eq ptr %94, null
  br i1 %95, label %96, label %97

96:                                               ; preds = %90
  store ptr null, ptr %5, align 8
  br label %124

97:                                               ; preds = %90
  %98 = load ptr, ptr %10, align 8
  %99 = getelementptr inbounds i8, ptr %98, i64 1
  store ptr %99, ptr %8, align 8
  br label %61

100:                                              ; preds = %76, %61
  %101 = load ptr, ptr %8, align 8
  %102 = load ptr, ptr %12, align 8
  %103 = icmp ne ptr %101, %102
  br i1 %103, label %104, label %118

104:                                              ; preds = %100
  %105 = load ptr, ptr %6, align 8
  %106 = load ptr, ptr %7, align 8
  %107 = load ptr, ptr %8, align 8
  %108 = load ptr, ptr %12, align 8
  %109 = load ptr, ptr %8, align 8
  %110 = ptrtoint ptr %108 to i64
  %111 = ptrtoint ptr %109 to i64
  %112 = sub i64 %110, %111
  %113 = call ptr @lexbor_str_append(ptr noundef %105, ptr noundef %106, ptr noundef %107, i64 noundef %112)
  store ptr %113, ptr %11, align 8
  %114 = load ptr, ptr %11, align 8
  %115 = icmp eq ptr %114, null
  br i1 %115, label %116, label %117

116:                                              ; preds = %104
  store ptr null, ptr %5, align 8
  br label %124

117:                                              ; preds = %104
  br label %118

118:                                              ; preds = %117, %100
  %119 = load ptr, ptr %6, align 8
  %120 = getelementptr inbounds %struct.lexbor_str_t, ptr %119, i32 0, i32 0
  %121 = load ptr, ptr %120, align 8
  %122 = load i64, ptr %13, align 8
  %123 = getelementptr inbounds i8, ptr %121, i64 %122
  store ptr %123, ptr %5, align 8
  br label %124

124:                                              ; preds = %118, %116, %96, %89, %51, %26
  %125 = load ptr, ptr %5, align 8
  ret ptr %125
}