; Function Attrs: nounwind uwtable
define hidden ptr @lexbor_str_append_with_rep_null_chars(ptr nocapture noundef %0, ptr noundef %1, ptr noundef %2, i64 noundef %3) local_unnamed_addr #0 {
  %5 = getelementptr inbounds i8, ptr %0, i64 8
  %6 = load i64, ptr %5, align 8
  %7 = sub i64 -2, %3
  %8 = icmp ugt i64 %6, %7
  br i1 %8, label %lexbor_str_append.exit.thread, label %9

9:                                                ; preds = %4
  %10 = add i64 %3, 1
  %11 = add i64 %10, %6
  %.val = load ptr, ptr %0, align 8
  %12 = getelementptr i8, ptr %.val, i64 -8
  %.val.val = load i64, ptr %12, align 8
  %13 = icmp ugt i64 %11, %.val.val
  br i1 %13, label %14, label %18

14:                                               ; preds = %9
  %15 = tail call ptr @lexbor_mraw_realloc(ptr noundef %1, ptr noundef nonnull %.val, i64 noundef %11) #15
  %16 = icmp eq ptr %15, null
  br i1 %16, label %lexbor_str_append.exit.thread, label %17

17:                                               ; preds = %14
  store ptr %15, ptr %0, align 8
  br label %18

18:                                               ; preds = %9, %17
  %19 = getelementptr inbounds i8, ptr %2, i64 %3
  %.not62 = icmp eq i64 %3, 0
  br i1 %.not62, label %.critedge, label %.lr.ph

.lr.ph:                                           ; preds = %18
  %20 = ptrtoint ptr %19 to i64
  br label %30

21:                                               ; preds = %67, %60
  %22 = phi i64 [ %58, %60 ], [ %.pre.i49, %67 ]
  %23 = phi ptr [ %.val.i46, %60 ], [ %65, %67 ]
  %24 = getelementptr inbounds i8, ptr %23, i64 %22
  tail call void @llvm.memcpy.p0.p0.i64(ptr noundef nonnull align 1 dereferenceable(3) %24, ptr noundef nonnull align 1 dereferenceable(3) @lexbor_str_res_ansi_replacement_character, i64 3, i1 false)
  %25 = load i64, ptr %5, align 8
  %26 = add i64 %25, 3
  store i64 %26, ptr %5, align 8
  %27 = load ptr, ptr %0, align 8
  %28 = getelementptr inbounds i8, ptr %27, i64 %26
  store i8 0, ptr %28, align 1
  %29 = getelementptr inbounds i8, ptr %33, i64 1
  %.not = icmp eq ptr %29, %19
  br i1 %.not, label %.critedge, label %30

30:                                               ; preds = %.lr.ph, %21
  %.04163 = phi ptr [ %2, %.lr.ph ], [ %29, %21 ]
  %31 = ptrtoint ptr %.04163 to i64
  %32 = sub i64 %20, %31
  %33 = tail call ptr @memchr(ptr noundef %.04163, i32 noundef 0, i64 noundef %32) #16
  %34 = icmp eq ptr %33, null
  br i1 %34, label %68, label %35

35:                                               ; preds = %30
  %36 = ptrtoint ptr %33 to i64
  %37 = sub i64 %36, %31
  %38 = load i64, ptr %5, align 8
  %39 = sub i64 -2, %37
  %40 = icmp ugt i64 %38, %39
  br i1 %40, label %lexbor_str_append.exit.thread, label %41

41:                                               ; preds = %35
  %42 = add i64 %37, 1
  %43 = add i64 %42, %38
  %.val.i = load ptr, ptr %0, align 8
  %44 = getelementptr i8, ptr %.val.i, i64 -8
  %.val.val.i = load i64, ptr %44, align 8
  %45 = icmp ugt i64 %43, %.val.val.i
  br i1 %45, label %46, label %50

46:                                               ; preds = %41
  %47 = tail call ptr @lexbor_mraw_realloc(ptr noundef %1, ptr noundef nonnull %.val.i, i64 noundef %43) #15
  %48 = icmp eq ptr %47, null
  br i1 %48, label %lexbor_str_append.exit.thread, label %49

49:                                               ; preds = %46
  store ptr %47, ptr %0, align 8
  %.pre.i = load i64, ptr %5, align 8
  br label %50

50:                                               ; preds = %49, %41
  %51 = phi i64 [ %38, %41 ], [ %.pre.i, %49 ]
  %52 = phi ptr [ %.val.i, %41 ], [ %47, %49 ]
  %53 = getelementptr inbounds i8, ptr %52, i64 %51
  tail call void @llvm.memcpy.p0.p0.i64(ptr align 1 %53, ptr align 1 %.04163, i64 %37, i1 false)
  %54 = load i64, ptr %5, align 8
  %55 = add i64 %54, %37
  store i64 %55, ptr %5, align 8
  %56 = load ptr, ptr %0, align 8
  %57 = getelementptr inbounds i8, ptr %56, i64 %55
  store i8 0, ptr %57, align 1
  %58 = load i64, ptr %5, align 8
  %59 = icmp ugt i64 %58, -5
  br i1 %59, label %lexbor_str_append.exit.thread, label %60

60:                                               ; preds = %50
  %61 = add nuw i64 %58, 4
  %.val.i46 = load ptr, ptr %0, align 8
  %62 = getelementptr i8, ptr %.val.i46, i64 -8
  %.val.val.i47 = load i64, ptr %62, align 8
  %63 = icmp ugt i64 %61, %.val.val.i47
  br i1 %63, label %64, label %21

64:                                               ; preds = %60
  %65 = tail call ptr @lexbor_mraw_realloc(ptr noundef %1, ptr noundef nonnull %.val.i46, i64 noundef %61) #15
  %66 = icmp eq ptr %65, null
  br i1 %66, label %lexbor_str_append.exit.thread, label %67

67:                                               ; preds = %64
  store ptr %65, ptr %0, align 8
  %.pre.i49 = load i64, ptr %5, align 8
  br label %21

68:                                               ; preds = %30
  %69 = load i64, ptr %5, align 8
  %70 = sub i64 -2, %32
  %71 = icmp ugt i64 %69, %70
  br i1 %71, label %lexbor_str_append.exit.thread, label %72

72:                                               ; preds = %68
  %73 = add i64 %32, 1
  %74 = add i64 %73, %69
  %.val.i51 = load ptr, ptr %0, align 8
  %75 = getelementptr i8, ptr %.val.i51, i64 -8
  %.val.val.i52 = load i64, ptr %75, align 8
  %76 = icmp ugt i64 %74, %.val.val.i52
  br i1 %76, label %77, label %lexbor_str_append.exit55

77:                                               ; preds = %72
  %78 = tail call ptr @lexbor_mraw_realloc(ptr noundef %1, ptr noundef nonnull %.val.i51, i64 noundef %74) #15
  %79 = icmp eq ptr %78, null
  br i1 %79, label %lexbor_str_append.exit.thread, label %80

80:                                               ; preds = %77
  store ptr %78, ptr %0, align 8
  %.pre.i54 = load i64, ptr %5, align 8
  br label %lexbor_str_append.exit55

lexbor_str_append.exit55:                         ; preds = %72, %80
  %81 = phi i64 [ %69, %72 ], [ %.pre.i54, %80 ]
  %82 = phi ptr [ %.val.i51, %72 ], [ %78, %80 ]
  %83 = getelementptr inbounds i8, ptr %82, i64 %81
  tail call void @llvm.memcpy.p0.p0.i64(ptr align 1 %83, ptr align 1 %.04163, i64 %32, i1 false)
  %84 = load i64, ptr %5, align 8
  %85 = add i64 %84, %32
  store i64 %85, ptr %5, align 8
  %86 = load ptr, ptr %0, align 8
  %87 = getelementptr inbounds i8, ptr %86, i64 %85
  store i8 0, ptr %87, align 1
  br label %.critedge

.critedge:                                        ; preds = %21, %lexbor_str_append.exit55, %18
  %88 = load ptr, ptr %0, align 8
  %89 = getelementptr inbounds i8, ptr %88, i64 %6
  br label %lexbor_str_append.exit.thread

lexbor_str_append.exit.thread:                    ; preds = %64, %50, %46, %35, %77, %68, %14, %4, %.critedge
  %.0 = phi ptr [ %89, %.critedge ], [ null, %4 ], [ null, %14 ], [ null, %68 ], [ null, %77 ], [ null, %35 ], [ null, %46 ], [ null, %50 ], [ null, %64 ]
  ret ptr %.0
}